; Function Attrs: mustprogress uwtable
define void @_ZN6icu_7512PluralFormat4initEPKNS_11PluralRulesE11UPluralTypeR10UErrorCode(ptr noundef nonnull align 8 dereferenceable(712) %this, ptr noundef %rules, i32 noundef %type, ptr noundef nonnull align 4 dereferenceable(4) %status) local_unnamed_addr #1 align 2 {
entry:
  %0 = load i32, ptr %status, align 4
  %cmp.i = icmp slt i32 %0, 1
  br i1 %cmp.i, label %if.end, label %return

if.end:                                           ; preds = %entry
  %cmp = icmp eq ptr %rules, null
  br i1 %cmp, label %if.then2, label %if.else

if.then2:                                         ; preds = %if.end
  %locale = getelementptr inbounds i8, ptr %this, i64 328
  %call3 = tail call noundef ptr @_ZN6icu_7511PluralRules9forLocaleERKNS_6LocaleE11UPluralTypeR10UErrorCode(ptr noundef nonnull align 8 dereferenceable(217) %locale, i32 noundef %type, ptr noundef nonnull align 4 dereferenceable(4) %status)
  %pluralRules = getelementptr inbounds i8, ptr %this, i64 704
  store ptr %call3, ptr %pluralRules, align 8
  br label %if.end12

if.else:                                          ; preds = %if.end
  %call4 = tail call noundef ptr @_ZNK6icu_7511PluralRules5cloneEv(ptr noundef nonnull align 8 dereferenceable(28) %rules)
  %pluralRules6 = getelementptr inbounds i8, ptr %this, i64 704
  store ptr %call4, ptr %pluralRules6, align 8
  %cmp9 = icmp eq ptr %call4, null
  br i1 %cmp9, label %if.then10, label %if.end12

if.then10:                                        ; preds = %if.else
  store i32 7, ptr %status, align 4
  br label %return

if.end12:                                         ; preds = %if.else, %if.then2
  %locale13 = getelementptr inbounds i8, ptr %this, i64 328
  %call14 = tail call noundef ptr @_ZN6icu_7512NumberFormat14createInstanceERKNS_6LocaleER10UErrorCode(ptr noundef nonnull align 8 dereferenceable(217) %locale13, ptr noundef nonnull align 4 dereferenceable(4) %status)
  %numberFormat = getelementptr inbounds i8, ptr %this, i64 680
  store ptr %call14, ptr %numberFormat, align 8
  br label %return

return:                                           ; preds = %entry, %if.end12, %if.then10
  ret void
}